target datalayout = "e-m:e-p270:32:32-p271:32:32-p272:64:64-i64:64-i128:128-f80:128-n8:16:32:64-S128"
target triple = "x86_64-pc-linux-gnu"

%"class.double_conversion::DoubleToStringConverter" = type { i32, ptr, ptr, i8, i32, i32, i32, i32, i32 }
%"class.double_conversion::StringBuilder" = type { %"class.double_conversion::Vector", i32, [4 x i8] }
%"class.double_conversion::Vector" = type <{ ptr, i32, [4 x i8] }>

; Function Attrs: mustprogress nounwind uwtable
define linkonce_odr noundef nonnull align 1 dereferenceable(1) ptr @_ZNK17double_conversion6VectorIcEixEi(ptr noundef nonnull align 8 dereferenceable(12) %0, i32 noundef %1) #3 comdat align 2 {
  %3 = alloca ptr, align 8
  %4 = alloca i32, align 4
  store ptr %0, ptr %3, align 8, !tbaa !57
  store i32 %1, ptr %4, align 4, !tbaa !3
  %5 = load ptr, ptr %3, align 8
  %6 = getelementptr inbounds nuw %"class.double_conversion::Vector", ptr %5, i32 0, i32 0
  %7 = load ptr, ptr %6, align 8, !tbaa !59
  %8 = load i32, ptr %4, align 4, !tbaa !3
  %9 = sext i32 %8 to i64
  %10 = getelementptr inbounds i8, ptr %7, i64 %9
  ret ptr %10
}

; Function Attrs: mustprogress uwtable
define linkonce_odr void @_ZN17double_conversion13StringBuilder12AddSubstringEPKci(ptr noundef nonnull align 8 dereferenceable(20) %0, ptr noundef %1, i32 noundef %2) #0 comdat align 2 {
  %4 = alloca ptr, align 8
  %5 = alloca ptr, align 8
  %6 = alloca i32, align 4
  store ptr %0, ptr %4, align 8, !tbaa !26
  store ptr %1, ptr %5, align 8, !tbaa !11
  store i32 %2, ptr %6, align 4, !tbaa !3
  %7 = load ptr, ptr %4, align 8
  %8 = getelementptr inbounds nuw %"class.double_conversion::StringBuilder", ptr %7, i32 0, i32 0
  %9 = getelementptr inbounds nuw %"class.double_conversion::StringBuilder", ptr %7, i32 0, i32 1
  %10 = load i32, ptr %9, align 8, !tbaa !34
  %11 = call noundef nonnull align 1 dereferenceable(1) ptr @_ZNK17double_conversion6VectorIcEixEi(ptr noundef nonnull align 8 dereferenceable(12) %8, i32 noundef %10)
  %12 = load ptr, ptr %5, align 8, !tbaa !11
  %13 = load i32, ptr %6, align 4, !tbaa !3
  %14 = sext i32 %13 to i64
  call void @llvm.memmove.p0.p0.i64(ptr align 1 %11, ptr align 1 %12, i64 %14, i1 false)
  %15 = load i32, ptr %6, align 4, !tbaa !3
  %16 = getelementptr inbounds nuw %"class.double_conversion::StringBuilder", ptr %7, i32 0, i32 1
  %17 = load i32, ptr %16, align 8, !tbaa !34
  %18 = add nsw i32 %17, %15
  store i32 %18, ptr %16, align 8, !tbaa !34
  ret void
}

; Function Attrs: mustprogress uwtable
define linkonce_odr void @_ZN17double_conversion13StringBuilder10AddPaddingEci(ptr noundef nonnull align 8 dereferenceable(20) %0, i8 noundef signext %1, i32 noundef %2) #0 comdat align 2 {
  %4 = alloca ptr, align 8
  %5 = alloca i8, align 1
  %6 = alloca i32, align 4
  %7 = alloca i32, align 4
  store ptr %0, ptr %4, align 8, !tbaa !26
  store i8 %1, ptr %5, align 1, !tbaa !13
  store i32 %2, ptr %6, align 4, !tbaa !3
  %8 = load ptr, ptr %4, align 8
  call void @llvm.lifetime.start.p0(i64 4, ptr %7) #2
  store i32 0, ptr %7, align 4, !tbaa !3
  br label %9

9:                                                ; preds = %16, %3
  %10 = load i32, ptr %7, align 4, !tbaa !3
  %11 = load i32, ptr %6, align 4, !tbaa !3
  %12 = icmp slt i32 %10, %11
  br i1 %12, label %14, label %13

13:                                               ; preds = %9
  call void @llvm.lifetime.end.p0(i64 4, ptr %7) #2
  br label %19

14:                                               ; preds = %9
  %15 = load i8, ptr %5, align 1, !tbaa !13
  call void @_ZN17double_conversion13StringBuilder12AddCharacterEc(ptr noundef nonnull align 8 dereferenceable(20) %8, i8 noundef signext %15)
  br label %16

16:                                               ; preds = %14
  %17 = load i32, ptr %7, align 4, !tbaa !3
  %18 = add nsw i32 %17, 1
  store i32 %18, ptr %7, align 4, !tbaa !3
  br label %9, !llvm.loop !42

19:                                               ; preds = %13
  ret void
}

; Function Attrs: mustprogress uwtable
define linkonce_odr void @_ZN17double_conversion13StringBuilder12AddCharacterEc(ptr noundef nonnull align 8 dereferenceable(20) %0, i8 noundef signext %1) #0 comdat align 2 {
  %3 = alloca ptr, align 8
  %4 = alloca i8, align 1
  store ptr %0, ptr %3, align 8, !tbaa !26
  store i8 %1, ptr %4, align 1, !tbaa !13
  %5 = load ptr, ptr %3, align 8
  %6 = load i8, ptr %4, align 1, !tbaa !13
  %7 = getelementptr inbounds nuw %"class.double_conversion::StringBuilder", ptr %5, i32 0, i32 0
  %8 = getelementptr inbounds nuw %"class.double_conversion::StringBuilder", ptr %5, i32 0, i32 1
  %9 = load i32, ptr %8, align 8, !tbaa !34
  %10 = add nsw i32 %9, 1
  store i32 %10, ptr %8, align 8, !tbaa !34
  %11 = call noundef nonnull align 1 dereferenceable(1) ptr @_ZNK17double_conversion6VectorIcEixEi(ptr noundef nonnull align 8 dereferenceable(12) %7, i32 noundef %9)
  store i8 %6, ptr %11, align 1, !tbaa !13
  ret void
}

; Function Attrs: mustprogress uwtable
define void @_ZNK17double_conversion23DoubleToStringConverter27CreateDecimalRepresentationEPKciiiPNS_13StringBuilderE(ptr noundef nonnull align 8 dereferenceable(48) %0, ptr noundef %1, i32 noundef %2, i32 noundef %3, i32 noundef %4, ptr noundef %5) #0 align 2 {
  %7 = alloca ptr, align 8
  %8 = alloca ptr, align 8
  %9 = alloca i32, align 4
  %10 = alloca i32, align 4
  %11 = alloca i32, align 4
  %12 = alloca ptr, align 8
  %13 = alloca i32, align 4
  %14 = alloca i32, align 4
  store ptr %0, ptr %7, align 8, !tbaa !8
  store ptr %1, ptr %8, align 8, !tbaa !11
  store i32 %2, ptr %9, align 4, !tbaa !3
  store i32 %3, ptr %10, align 4, !tbaa !3
  store i32 %4, ptr %11, align 4, !tbaa !3
  store ptr %5, ptr %12, align 8, !tbaa !26
  %15 = load ptr, ptr %7, align 8
  %16 = load i32, ptr %10, align 4, !tbaa !3
  %17 = icmp sle i32 %16, 0
  br i1 %17, label %18, label %39

18:                                               ; preds = %6
  %19 = load ptr, ptr %12, align 8, !tbaa !26
  call void @_ZN17double_conversion13StringBuilder12AddCharacterEc(ptr noundef nonnull align 8 dereferenceable(20) %19, i8 noundef signext 48)
  %20 = load i32, ptr %11, align 4, !tbaa !3
  %21 = icmp sgt i32 %20, 0
  br i1 %21, label %22, label %38

22:                                               ; preds = %18
  %23 = load ptr, ptr %12, align 8, !tbaa !26
  call void @_ZN17double_conversion13StringBuilder12AddCharacterEc(ptr noundef nonnull align 8 dereferenceable(20) %23, i8 noundef signext 46)
  %24 = load ptr, ptr %12, align 8, !tbaa !26
  %25 = load i32, ptr %10, align 4, !tbaa !3
  %26 = sub nsw i32 0, %25
  call void @_ZN17double_conversion13StringBuilder10AddPaddingEci(ptr noundef nonnull align 8 dereferenceable(20) %24, i8 noundef signext 48, i32 noundef %26)
  %27 = load ptr, ptr %12, align 8, !tbaa !26
  %28 = load ptr, ptr %8, align 8, !tbaa !11
  %29 = load i32, ptr %9, align 4, !tbaa !3
  call void @_ZN17double_conversion13StringBuilder12AddSubstringEPKci(ptr noundef nonnull align 8 dereferenceable(20) %27, ptr noundef %28, i32 noundef %29)
  call void @llvm.lifetime.start.p0(i64 4, ptr %13) #2
  %30 = load i32, ptr %11, align 4, !tbaa !3
  %31 = load i32, ptr %10, align 4, !tbaa !3
  %32 = sub nsw i32 0, %31
  %33 = sub nsw i32 %30, %32
  %34 = load i32, ptr %9, align 4, !tbaa !3
  %35 = sub nsw i32 %33, %34
  store i32 %35, ptr %13, align 4, !tbaa !3
  %36 = load ptr, ptr %12, align 8, !tbaa !26
  %37 = load i32, ptr %13, align 4, !tbaa !3
  call void @_ZN17double_conversion13StringBuilder10AddPaddingEci(ptr noundef nonnull align 8 dereferenceable(20) %36, i8 noundef signext 48, i32 noundef %37)
  call void @llvm.lifetime.end.p0(i64 4, ptr %13) #2
  br label %38

38:                                               ; preds = %22, %18
  br label %79

39:                                               ; preds = %6
  %40 = load i32, ptr %10, align 4, !tbaa !3
  %41 = load i32, ptr %9, align 4, !tbaa !3
  %42 = icmp sge i32 %40, %41
  br i1 %42, label %43, label %58

43:                                               ; preds = %39
  %44 = load ptr, ptr %12, align 8, !tbaa !26
  %45 = load ptr, ptr %8, align 8, !tbaa !11
  %46 = load i32, ptr %9, align 4, !tbaa !3
  call void @_ZN17double_conversion13StringBuilder12AddSubstringEPKci(ptr noundef nonnull align 8 dereferenceable(20) %44, ptr noundef %45, i32 noundef %46)
  %47 = load ptr, ptr %12, align 8, !tbaa !26
  %48 = load i32, ptr %10, align 4, !tbaa !3
  %49 = load i32, ptr %9, align 4, !tbaa !3
  %50 = sub nsw i32 %48, %49
  call void @_ZN17double_conversion13StringBuilder10AddPaddingEci(ptr noundef nonnull align 8 dereferenceable(20) %47, i8 noundef signext 48, i32 noundef %50)
  %51 = load i32, ptr %11, align 4, !tbaa !3
  %52 = icmp sgt i32 %51, 0
  br i1 %52, label %53, label %57

53:                                               ; preds = %43
  %54 = load ptr, ptr %12, align 8, !tbaa !26
  call void @_ZN17double_conversion13StringBuilder12AddCharacterEc(ptr noundef nonnull align 8 dereferenceable(20) %54, i8 noundef signext 46)
  %55 = load ptr, ptr %12, align 8, !tbaa !26
  %56 = load i32, ptr %11, align 4, !tbaa !3
  call void @_ZN17double_conversion13StringBuilder10AddPaddingEci(ptr noundef nonnull align 8 dereferenceable(20) %55, i8 noundef signext 48, i32 noundef %56)
  br label %57

57:                                               ; preds = %53, %43
  br label %78

58:                                               ; preds = %39
  %59 = load ptr, ptr %12, align 8, !tbaa !26
  %60 = load ptr, ptr %8, align 8, !tbaa !11
  %61 = load i32, ptr %10, align 4, !tbaa !3
  call void @_ZN17double_conversion13StringBuilder12AddSubstringEPKci(ptr noundef nonnull align 8 dereferenceable(20) %59, ptr noundef %60, i32 noundef %61)
  %62 = load ptr, ptr %12, align 8, !tbaa !26
  call void @_ZN17double_conversion13StringBuilder12AddCharacterEc(ptr noundef nonnull align 8 dereferenceable(20) %62, i8 noundef signext 46)
  %63 = load ptr, ptr %12, align 8, !tbaa !26
  %64 = load ptr, ptr %8, align 8, !tbaa !11
  %65 = load i32, ptr %10, align 4, !tbaa !3
  %66 = sext i32 %65 to i64
  %67 = getelementptr inbounds i8, ptr %64, i64 %66
  %68 = load i32, ptr %9, align 4, !tbaa !3
  %69 = load i32, ptr %10, align 4, !tbaa !3
  %70 = sub nsw i32 %68, %69
  call void @_ZN17double_conversion13StringBuilder12AddSubstringEPKci(ptr noundef nonnull align 8 dereferenceable(20) %63, ptr noundef %67, i32 noundef %70)
  call void @llvm.lifetime.start.p0(i64 4, ptr %14) #2
  %71 = load i32, ptr %11, align 4, !tbaa !3
  %72 = load i32, ptr %9, align 4, !tbaa !3
  %73 = load i32, ptr %10, align 4, !tbaa !3
  %74 = sub nsw i32 %72, %73
  %75 = sub nsw i32 %71, %74
  store i32 %75, ptr %14, align 4, !tbaa !3
  %76 = load ptr, ptr %12, align 8, !tbaa !26
  %77 = load i32, ptr %14, align 4, !tbaa !3
  call void @_ZN17double_conversion13StringBuilder10AddPaddingEci(ptr noundef nonnull align 8 dereferenceable(20) %76, i8 noundef signext 48, i32 noundef %77)
  call void @llvm.lifetime.end.p0(i64 4, ptr %14) #2
  br label %78

78:                                               ; preds = %58, %57
  br label %79

79:                                               ; preds = %78, %38
  %80 = load i32, ptr %11, align 4, !tbaa !3
  %81 = icmp eq i32 %80, 0
  br i1 %81, label %82, label %97

82:                                               ; preds = %79
  %83 = getelementptr inbounds nuw %"class.double_conversion::DoubleToStringConverter", ptr %15, i32 0, i32 0
  %84 = load i32, ptr %83, align 8, !tbaa !14
  %85 = and i32 %84, 2
  %86 = icmp ne i32 %85, 0
  br i1 %86, label %87, label %89

87:                                               ; preds = %82
  %88 = load ptr, ptr %12, align 8, !tbaa !26
  call void @_ZN17double_conversion13StringBuilder12AddCharacterEc(ptr noundef nonnull align 8 dereferenceable(20) %88, i8 noundef signext 46)
  br label %89

89:                                               ; preds = %87, %82
  %90 = getelementptr inbounds nuw %"class.double_conversion::DoubleToStringConverter", ptr %15, i32 0, i32 0
  %91 = load i32, ptr %90, align 8, !tbaa !14
  %92 = and i32 %91, 4
  %93 = icmp ne i32 %92, 0
  br i1 %93, label %94, label %96

94:                                               ; preds = %89
  %95 = load ptr, ptr %12, align 8, !tbaa !26
  call void @_ZN17double_conversion13StringBuilder12AddCharacterEc(ptr noundef nonnull align 8 dereferenceable(20) %95, i8 noundef signext 48)
  br label %96

96:                                               ; preds = %94, %89
  br label %97

97:                                               ; preds = %96, %79
  ret void
}