; Function Attrs: mustprogress nofree norecurse nosync nounwind memory(readwrite, inaccessiblemem: none) uwtable
define void @_ZNK17double_conversion23DoubleToStringConverter27CreateDecimalRepresentationEPKciiiPNS_13StringBuilderE(ptr noundef nonnull readonly align 8 captures(none) dereferenceable(48) %0, ptr noundef readonly captures(none) %1, i32 noundef %2, i32 noundef %3, i32 noundef %4, ptr noundef captures(none) %5) local_unnamed_addr #4 align 2 {
  %7 = icmp slt i32 %3, 1
  br i1 %7, label %8, label %45

8:                                                ; preds = %6
  %9 = getelementptr inbounds nuw i8, ptr %5, i64 16
  %10 = load i32, ptr %9, align 8, !tbaa !19
  %11 = add nsw i32 %10, 1
  store i32 %11, ptr %9, align 8, !tbaa !19
  %12 = load ptr, ptr %5, align 8, !tbaa !22
  %13 = sext i32 %10 to i64
  %14 = getelementptr inbounds i8, ptr %12, i64 %13
  store i8 48, ptr %14, align 1, !tbaa !23
  %15 = icmp sgt i32 %4, 0
  br i1 %15, label %16, label %_ZN17double_conversion13StringBuilder10AddPaddingEci.exit52

16:                                               ; preds = %8
  %17 = load i32, ptr %9, align 8, !tbaa !19
  %18 = add nsw i32 %17, 1
  store i32 %18, ptr %9, align 8, !tbaa !19
  %19 = load ptr, ptr %5, align 8, !tbaa !22
  %20 = sext i32 %17 to i64
  %21 = getelementptr inbounds i8, ptr %19, i64 %20
  store i8 46, ptr %21, align 1, !tbaa !23
  %22 = sub nsw i32 0, %3
  %.not65 = icmp eq i32 %3, 0
  br i1 %.not65, label %_ZN17double_conversion13StringBuilder10AddPaddingEci.exit, label %.lr.ph.i

.lr.ph.i:                                         ; preds = %16, %.lr.ph.i
  %.04.i = phi i32 [ %28, %.lr.ph.i ], [ 0, %16 ]
  %23 = load i32, ptr %9, align 8, !tbaa !19
  %24 = add nsw i32 %23, 1
  store i32 %24, ptr %9, align 8, !tbaa !19
  %25 = load ptr, ptr %5, align 8, !tbaa !22
  %26 = sext i32 %23 to i64
  %27 = getelementptr inbounds i8, ptr %25, i64 %26
  store i8 48, ptr %27, align 1, !tbaa !23
  %28 = add nuw nsw i32 %.04.i, 1
  %exitcond.not.i = icmp eq i32 %28, %22
  br i1 %exitcond.not.i, label %_ZN17double_conversion13StringBuilder10AddPaddingEci.exit, label %.lr.ph.i, !llvm.loop !28

_ZN17double_conversion13StringBuilder10AddPaddingEci.exit: ; preds = %.lr.ph.i, %16
  %29 = load i32, ptr %9, align 8, !tbaa !19
  %30 = load ptr, ptr %5, align 8, !tbaa !22
  %31 = sext i32 %29 to i64
  %32 = getelementptr inbounds i8, ptr %30, i64 %31
  %33 = sext i32 %2 to i64
  tail call void @llvm.memmove.p0.p0.i64(ptr nonnull align 1 %32, ptr align 1 %1, i64 %33, i1 false)
  %34 = load i32, ptr %9, align 8, !tbaa !19
  %35 = add nsw i32 %34, %2
  store i32 %35, ptr %9, align 8, !tbaa !19
  %36 = sub i32 %3, %2
  %37 = add i32 %36, %4
  %38 = icmp sgt i32 %37, 0
  br i1 %38, label %.lr.ph.i49, label %_ZN17double_conversion13StringBuilder10AddPaddingEci.exit52

.lr.ph.i49:                                       ; preds = %_ZN17double_conversion13StringBuilder10AddPaddingEci.exit, %.lr.ph.i49
  %.04.i50 = phi i32 [ %44, %.lr.ph.i49 ], [ 0, %_ZN17double_conversion13StringBuilder10AddPaddingEci.exit ]
  %39 = load i32, ptr %9, align 8, !tbaa !19
  %40 = add nsw i32 %39, 1
  store i32 %40, ptr %9, align 8, !tbaa !19
  %41 = load ptr, ptr %5, align 8, !tbaa !22
  %42 = sext i32 %39 to i64
  %43 = getelementptr inbounds i8, ptr %41, i64 %42
  store i8 48, ptr %43, align 1, !tbaa !23
  %44 = add nuw nsw i32 %.04.i50, 1
  %exitcond.not.i51 = icmp eq i32 %44, %37
  br i1 %exitcond.not.i51, label %_ZN17double_conversion13StringBuilder10AddPaddingEci.exit52, label %.lr.ph.i49, !llvm.loop !28

45:                                               ; preds = %6
  %.not = icmp slt i32 %3, %2
  %46 = getelementptr inbounds nuw i8, ptr %5, i64 16
  %47 = load i32, ptr %46, align 8, !tbaa !19
  %48 = load ptr, ptr %5, align 8, !tbaa !22
  %49 = sext i32 %47 to i64
  %50 = getelementptr inbounds i8, ptr %48, i64 %49
  br i1 %.not, label %76, label %51

51:                                               ; preds = %45
  %52 = sext i32 %2 to i64
  tail call void @llvm.memmove.p0.p0.i64(ptr nonnull align 1 %50, ptr align 1 %1, i64 %52, i1 false)
  %53 = load i32, ptr %46, align 8, !tbaa !19
  %54 = add nsw i32 %53, %2
  store i32 %54, ptr %46, align 8, !tbaa !19
  %55 = sub nsw i32 %3, %2
  %56 = icmp sgt i32 %55, 0
  br i1 %56, label %.lr.ph.i53, label %_ZN17double_conversion13StringBuilder10AddPaddingEci.exit56

.lr.ph.i53:                                       ; preds = %51, %.lr.ph.i53
  %.04.i54 = phi i32 [ %62, %.lr.ph.i53 ], [ 0, %51 ]
  %57 = load i32, ptr %46, align 8, !tbaa !19
  %58 = add nsw i32 %57, 1
  store i32 %58, ptr %46, align 8, !tbaa !19
  %59 = load ptr, ptr %5, align 8, !tbaa !22
  %60 = sext i32 %57 to i64
  %61 = getelementptr inbounds i8, ptr %59, i64 %60
  store i8 48, ptr %61, align 1, !tbaa !23
  %62 = add nuw nsw i32 %.04.i54, 1
  %exitcond.not.i55 = icmp eq i32 %62, %55
  br i1 %exitcond.not.i55, label %_ZN17double_conversion13StringBuilder10AddPaddingEci.exit56, label %.lr.ph.i53, !llvm.loop !28

_ZN17double_conversion13StringBuilder10AddPaddingEci.exit56: ; preds = %.lr.ph.i53, %51
  %63 = icmp sgt i32 %4, 0
  br i1 %63, label %.lr.ph.i57, label %_ZN17double_conversion13StringBuilder10AddPaddingEci.exit52

.lr.ph.i57:                                       ; preds = %_ZN17double_conversion13StringBuilder10AddPaddingEci.exit56
  %64 = load i32, ptr %46, align 8, !tbaa !19
  %65 = add nsw i32 %64, 1
  store i32 %65, ptr %46, align 8, !tbaa !19
  %66 = load ptr, ptr %5, align 8, !tbaa !22
  %67 = sext i32 %64 to i64
  %68 = getelementptr inbounds i8, ptr %66, i64 %67
  store i8 46, ptr %68, align 1, !tbaa !23
  br label %69

69:                                               ; preds = %69, %.lr.ph.i57
  %.04.i58 = phi i32 [ 0, %.lr.ph.i57 ], [ %75, %69 ]
  %70 = load i32, ptr %46, align 8, !tbaa !19
  %71 = add nsw i32 %70, 1
  store i32 %71, ptr %46, align 8, !tbaa !19
  %72 = load ptr, ptr %5, align 8, !tbaa !22
  %73 = sext i32 %70 to i64
  %74 = getelementptr inbounds i8, ptr %72, i64 %73
  store i8 48, ptr %74, align 1, !tbaa !23
  %75 = add nuw nsw i32 %.04.i58, 1
  %exitcond.not.i59 = icmp eq i32 %75, %4
  br i1 %exitcond.not.i59, label %_ZN17double_conversion13StringBuilder10AddPaddingEci.exit52.thread, label %69, !llvm.loop !28

76:                                               ; preds = %45
  %77 = zext nneg i32 %3 to i64
  tail call void @llvm.memmove.p0.p0.i64(ptr nonnull align 1 %50, ptr align 1 %1, i64 %77, i1 false)
  %78 = load i32, ptr %46, align 8, !tbaa !19
  %79 = add nsw i32 %78, %3
  %80 = add nsw i32 %79, 1
  store i32 %80, ptr %46, align 8, !tbaa !19
  %81 = load ptr, ptr %5, align 8, !tbaa !22
  %82 = sext i32 %79 to i64
  %83 = getelementptr inbounds i8, ptr %81, i64 %82
  store i8 46, ptr %83, align 1, !tbaa !23
  %84 = getelementptr inbounds nuw i8, ptr %1, i64 %77
  %85 = sub nsw i32 %2, %3
  %86 = load i32, ptr %46, align 8, !tbaa !19
  %87 = load ptr, ptr %5, align 8, !tbaa !22
  %88 = sext i32 %86 to i64
  %89 = getelementptr inbounds i8, ptr %87, i64 %88
  %90 = sext i32 %85 to i64
  tail call void @llvm.memmove.p0.p0.i64(ptr nonnull align 1 %89, ptr nonnull align 1 %84, i64 %90, i1 false)
  %91 = load i32, ptr %46, align 8, !tbaa !19
  %92 = add nsw i32 %91, %85
  store i32 %92, ptr %46, align 8, !tbaa !19
  %93 = sub nsw i32 %4, %85
  %94 = icmp sgt i32 %93, 0
  br i1 %94, label %.lr.ph.i61, label %_ZN17double_conversion13StringBuilder10AddPaddingEci.exit52

.lr.ph.i61:                                       ; preds = %76, %.lr.ph.i61
  %.04.i62 = phi i32 [ %100, %.lr.ph.i61 ], [ 0, %76 ]
  %95 = load i32, ptr %46, align 8, !tbaa !19
  %96 = add nsw i32 %95, 1
  store i32 %96, ptr %46, align 8, !tbaa !19
  %97 = load ptr, ptr %5, align 8, !tbaa !22
  %98 = sext i32 %95 to i64
  %99 = getelementptr inbounds i8, ptr %97, i64 %98
  store i8 48, ptr %99, align 1, !tbaa !23
  %100 = add nuw nsw i32 %.04.i62, 1
  %exitcond.not.i63 = icmp eq i32 %100, %93
  br i1 %exitcond.not.i63, label %_ZN17double_conversion13StringBuilder10AddPaddingEci.exit52, label %.lr.ph.i61, !llvm.loop !28

_ZN17double_conversion13StringBuilder10AddPaddingEci.exit52: ; preds = %.lr.ph.i61, %.lr.ph.i49, %76, %_ZN17double_conversion13StringBuilder10AddPaddingEci.exit, %_ZN17double_conversion13StringBuilder10AddPaddingEci.exit56, %8
  %101 = icmp eq i32 %4, 0
  br i1 %101, label %102, label %_ZN17double_conversion13StringBuilder10AddPaddingEci.exit52.thread

102:                                              ; preds = %_ZN17double_conversion13StringBuilder10AddPaddingEci.exit52
  %103 = load i32, ptr %0, align 8, !tbaa !4
  %104 = and i32 %103, 2
  %.not47 = icmp eq i32 %104, 0
  br i1 %.not47, label %112, label %105

105:                                              ; preds = %102
  %106 = getelementptr inbounds nuw i8, ptr %5, i64 16
  %107 = load i32, ptr %106, align 8, !tbaa !19
  %108 = add nsw i32 %107, 1
  store i32 %108, ptr %106, align 8, !tbaa !19
  %109 = load ptr, ptr %5, align 8, !tbaa !22
  %110 = sext i32 %107 to i64
  %111 = getelementptr inbounds i8, ptr %109, i64 %110
  store i8 46, ptr %111, align 1, !tbaa !23
  %.pre = load i32, ptr %0, align 8, !tbaa !4
  br label %112

112:                                              ; preds = %105, %102
  %113 = phi i32 [ %.pre, %105 ], [ %103, %102 ]
  %114 = and i32 %113, 4
  %.not48 = icmp eq i32 %114, 0
  br i1 %.not48, label %_ZN17double_conversion13StringBuilder10AddPaddingEci.exit52.thread, label %115

115:                                              ; preds = %112
  %116 = getelementptr inbounds nuw i8, ptr %5, i64 16
  %117 = load i32, ptr %116, align 8, !tbaa !19
  %118 = add nsw i32 %117, 1
  store i32 %118, ptr %116, align 8, !tbaa !19
  %119 = load ptr, ptr %5, align 8, !tbaa !22
  %120 = sext i32 %117 to i64
  %121 = getelementptr inbounds i8, ptr %119, i64 %120
  store i8 48, ptr %121, align 1, !tbaa !23
  br label %_ZN17double_conversion13StringBuilder10AddPaddingEci.exit52.thread

_ZN17double_conversion13StringBuilder10AddPaddingEci.exit52.thread: ; preds = %69, %112, %115, %_ZN17double_conversion13StringBuilder10AddPaddingEci.exit52
  ret void
}